; Function Attrs: mustprogress uwtable
define noundef range(i32 0, 4) i32 @_ZNK10open_spiel9coin_game9CoinState8GetPhaseEv(ptr nocapture noundef nonnull readonly align 8 dereferenceable(288) %0) local_unnamed_addr #3 align 2 personality ptr @__gxx_personality_v0 {
  %2 = alloca %"class.std::__cxx11::basic_string", align 8
  %3 = alloca %"class.std::allocator", align 1
  %4 = getelementptr inbounds nuw i8, ptr %0, i64 184
  %5 = load i32, ptr %4, align 8
  %.not = icmp eq i32 %5, -1
  br i1 %.not, label %6, label %35

6:                                                ; preds = %1
  %7 = getelementptr inbounds i8, ptr %0, i64 168
  %8 = load i32, ptr %7, align 8
  %9 = getelementptr inbounds nuw i8, ptr %0, i64 28
  %10 = load i32, ptr %9, align 4
  %11 = icmp slt i32 %8, %10
  br i1 %11, label %35, label %12

12:                                               ; preds = %6
  %13 = getelementptr inbounds i8, ptr %0, i64 172
  %14 = load i32, ptr %13, align 4
  %15 = icmp slt i32 %14, %10
  br i1 %15, label %35, label %16

16:                                               ; preds = %12
  %17 = getelementptr inbounds i8, ptr %0, i64 176
  %18 = load i32, ptr %17, align 8
  %19 = getelementptr inbounds nuw i8, ptr %0, i64 64
  %20 = load ptr, ptr %19, align 8
  %21 = getelementptr inbounds nuw i8, ptr %20, i64 296
  %22 = load i32, ptr %21, align 8
  %23 = getelementptr inbounds nuw i8, ptr %20, i64 300
  %24 = load i32, ptr %23, align 4
  %25 = mul nsw i32 %24, %22
  %26 = icmp slt i32 %18, %25
  br i1 %26, label %35, label %27

27:                                               ; preds = %16
  call void @_ZNSaIcEC1Ev(ptr noundef nonnull align 1 dereferenceable(1) %3) #26
  invoke void @_ZNSt7__cxx1112basic_stringIcSt11char_traitsIcESaIcEEC2IS3_EEPKcRKS3_(ptr noundef nonnull align 8 dereferenceable(32) %2, ptr noundef nonnull @.str.11, ptr noundef nonnull align 1 dereferenceable(1) %3)
          to label %28 unwind label %30

28:                                               ; preds = %27
  invoke void @_ZN10open_spiel15SpielFatalErrorERKNSt7__cxx1112basic_stringIcSt11char_traitsIcESaIcEEE(ptr noundef nonnull align 8 dereferenceable(32) %2) #25
          to label %29 unwind label %32

29:                                               ; preds = %28
  unreachable

30:                                               ; preds = %27
  %31 = landingpad { ptr, i32 }
          cleanup
  br label %34

32:                                               ; preds = %28
  %33 = landingpad { ptr, i32 }
          cleanup
  call void @_ZNSt7__cxx1112basic_stringIcSt11char_traitsIcESaIcEED1Ev(ptr noundef nonnull align 8 dereferenceable(32) %2) #26
  br label %34

34:                                               ; preds = %32, %30
  %.pn = phi { ptr, i32 } [ %33, %32 ], [ %31, %30 ]
  call void @_ZNSaIcED1Ev(ptr noundef nonnull align 1 dereferenceable(1) %3) #26
  resume { ptr, i32 } %.pn

35:                                               ; preds = %16, %12, %6, %1
  %.04 = phi i32 [ 3, %1 ], [ 0, %6 ], [ 1, %12 ], [ 2, %16 ]
  ret i32 %.04
}